target datalayout = "e-m:e-p270:32:32-p271:32:32-p272:64:64-i64:64-i128:128-f80:128-n8:16:32:64-S128"
target triple = "x86_64-pc-linux-gnu"

%"class.mu::ParserCallback" = type <{ ptr, i32, i32, i32, i32, i32, i8, [3 x i8] }>

; Function Attrs: mustprogress nounwind uwtable
define noundef i32 @_ZNK2mu14ParserCallback7GetArgcEv(ptr noundef nonnull align 8 dereferenceable(32) %0) #5 align 2 {
  %2 = alloca ptr, align 8
  store ptr %0, ptr %2, align 8, !tbaa !32
  %3 = load ptr, ptr %2, align 8
  %4 = getelementptr inbounds nuw %"class.mu::ParserCallback", ptr %3, i32 0, i32 1
  %5 = load i32, ptr %4, align 8, !tbaa !43
  %6 = and i32 %5, 16384
  %7 = icmp ne i32 %6, 0
  br i1 %7, label %8, label %9

8:                                                ; preds = %1
  br label %13

9:                                                ; preds = %1
  %10 = getelementptr inbounds nuw %"class.mu::ParserCallback", ptr %3, i32 0, i32 1
  %11 = load i32, ptr %10, align 8, !tbaa !43
  %12 = and i32 %11, 15
  br label %13

13:                                               ; preds = %9, %8
  %14 = phi i32 [ -1, %8 ], [ %12, %9 ]
  ret i32 %14
}