; Function Attrs: mustprogress nofree norecurse nosync nounwind willreturn memory(argmem: read) uwtable
define noundef range(i32 -1, 16) i32 @_ZNK2mu14ParserCallback7GetArgcEv(ptr noundef nonnull readonly align 8 captures(none) dereferenceable(32) %0) local_unnamed_addr #9 align 2 {
  %2 = getelementptr inbounds nuw i8, ptr %0, i64 8
  %3 = load i32, ptr %2, align 8, !tbaa !14
  %4 = and i32 %3, 16384
  %.not = icmp eq i32 %4, 0
  %5 = and i32 %3, 15
  %spec.select = select i1 %.not, i32 %5, i32 -1
  ret i32 %spec.select
}